target datalayout = "e-m:e-p270:32:32-p271:32:32-p272:64:64-i64:64-i128:128-f80:128-n8:16:32:64-S128"
target triple = "x86_64-pc-linux-gnu"

%struct.engine_st = type { ptr, ptr, ptr, ptr, ptr, ptr, ptr, ptr, ptr, ptr, ptr, ptr, ptr, ptr, ptr, ptr, ptr, ptr, ptr, i32, %struct.CRYPTO_REF_COUNT, i32, %struct.crypto_ex_data_st, ptr, ptr, ptr, ptr, ptr }
%struct.CRYPTO_REF_COUNT = type { i32 }
%struct.crypto_ex_data_st = type { ptr, ptr }

@global_engine_lock = external global ptr, align 8
@.str = private unnamed_addr constant [36 x i8] c"../openssl/crypto/engine/eng_list.c\00", align 1
@engine_list_head = internal global ptr null, align 8
@engine_list_tail = internal global ptr null, align 8
@__func__.ENGINE_add = private unnamed_addr constant [11 x i8] c"ENGINE_add\00", align 1
@__func__.engine_list_add = private unnamed_addr constant [16 x i8] c"engine_list_add\00", align 1

; Function Attrs: inlinehint nounwind uwtable
define internal i32 @CRYPTO_DOWN_REF(ptr noundef %0, ptr noundef %1) #3 {
  %3 = alloca ptr, align 8
  %4 = alloca ptr, align 8
  %5 = alloca i32, align 4
  %6 = alloca i32, align 4
  store ptr %0, ptr %3, align 8, !tbaa !8
  store ptr %1, ptr %4, align 8, !tbaa !29
  %7 = load ptr, ptr %3, align 8, !tbaa !8
  %8 = getelementptr inbounds nuw %struct.CRYPTO_REF_COUNT, ptr %7, i32 0, i32 0
  store i32 1, ptr %5, align 4, !tbaa !9
  %9 = load i32, ptr %5, align 4
  %10 = atomicrmw sub ptr %8, i32 %9 release, align 4
  store i32 %10, ptr %6, align 4
  %11 = load i32, ptr %6, align 4, !tbaa !9
  %12 = sub nsw i32 %11, 1
  %13 = load ptr, ptr %4, align 8, !tbaa !29
  store i32 %12, ptr %13, align 4, !tbaa !9
  %14 = load ptr, ptr %4, align 8, !tbaa !29
  %15 = load i32, ptr %14, align 4, !tbaa !9
  %16 = icmp eq i32 %15, 0
  br i1 %16, label %17, label %18

17:                                               ; preds = %2
  fence acquire
  br label %18

18:                                               ; preds = %17, %2
  ret i32 1
}

; Function Attrs: inlinehint nounwind uwtable
define internal i32 @CRYPTO_UP_REF(ptr noundef %0, ptr noundef %1) #3 {
  %3 = alloca ptr, align 8
  %4 = alloca ptr, align 8
  %5 = alloca i32, align 4
  %6 = alloca i32, align 4
  store ptr %0, ptr %3, align 8, !tbaa !8
  store ptr %1, ptr %4, align 8, !tbaa !29
  %7 = load ptr, ptr %3, align 8, !tbaa !8
  %8 = getelementptr inbounds nuw %struct.CRYPTO_REF_COUNT, ptr %7, i32 0, i32 0
  store i32 1, ptr %5, align 4, !tbaa !9
  %9 = load i32, ptr %5, align 4
  %10 = atomicrmw add ptr %8, i32 %9 monotonic, align 4
  store i32 %10, ptr %6, align 4
  %11 = load i32, ptr %6, align 4, !tbaa !9
  %12 = add nsw i32 %11, 1
  %13 = load ptr, ptr %4, align 8, !tbaa !29
  store i32 %12, ptr %13, align 4, !tbaa !9
  ret i32 1
}

; Function Attrs: nounwind uwtable
define internal i32 @engine_list_add(ptr noundef %0) #0 {
  %2 = alloca i32, align 4
  %3 = alloca ptr, align 8
  %4 = alloca i32, align 4
  %5 = alloca ptr, align 8
  %6 = alloca i32, align 4
  %7 = alloca i32, align 4
  store ptr %0, ptr %3, align 8, !tbaa !3
  call void @llvm.lifetime.start.p0(i64 4, ptr %4) #5
  store i32 0, ptr %4, align 4, !tbaa !9
  call void @llvm.lifetime.start.p0(i64 8, ptr %5) #5
  store ptr null, ptr %5, align 8, !tbaa !3
  call void @llvm.lifetime.start.p0(i64 4, ptr %6) #5
  %8 = load ptr, ptr %3, align 8, !tbaa !3
  %9 = icmp eq ptr %8, null
  br i1 %9, label %10, label %11

10:                                               ; preds = %1
  call void @ERR_new()
  call void @ERR_set_debug(ptr noundef @.str, i32 noundef 64, ptr noundef @__func__.engine_list_add)
  call void (i32, i32, ptr, ...) @ERR_set_error(i32 noundef 38, i32 noundef 786690, ptr noundef null)
  store i32 0, ptr %2, align 4
  store i32 1, ptr %7, align 4
  br label %89

11:                                               ; preds = %1
  %12 = load ptr, ptr @engine_list_head, align 8, !tbaa !3
  store ptr %12, ptr %5, align 8, !tbaa !3
  br label %13

13:                                               ; preds = %22, %11
  %14 = load ptr, ptr %5, align 8, !tbaa !3
  %15 = icmp ne ptr %14, null
  br i1 %15, label %16, label %20

16:                                               ; preds = %13
  %17 = load i32, ptr %4, align 4, !tbaa !9
  %18 = icmp ne i32 %17, 0
  %19 = xor i1 %18, true
  br label %20

20:                                               ; preds = %16, %13
  %21 = phi i1 [ false, %13 ], [ %19, %16 ]
  br i1 %21, label %22, label %35

22:                                               ; preds = %20
  %23 = load ptr, ptr %5, align 8, !tbaa !3
  %24 = getelementptr inbounds nuw %struct.engine_st, ptr %23, i32 0, i32 0
  %25 = load ptr, ptr %24, align 8, !tbaa !32
  %26 = load ptr, ptr %3, align 8, !tbaa !3
  %27 = getelementptr inbounds nuw %struct.engine_st, ptr %26, i32 0, i32 0
  %28 = load ptr, ptr %27, align 8, !tbaa !32
  %29 = call i32 @strcmp(ptr noundef %25, ptr noundef %28) #6
  %30 = icmp eq i32 %29, 0
  %31 = zext i1 %30 to i32
  store i32 %31, ptr %4, align 4, !tbaa !9
  %32 = load ptr, ptr %5, align 8, !tbaa !3
  %33 = getelementptr inbounds nuw %struct.engine_st, ptr %32, i32 0, i32 24
  %34 = load ptr, ptr %33, align 8, !tbaa !24
  store ptr %34, ptr %5, align 8, !tbaa !3
  br label %13, !llvm.loop !34

35:                                               ; preds = %20
  %36 = load i32, ptr %4, align 4, !tbaa !9
  %37 = icmp ne i32 %36, 0
  br i1 %37, label %38, label %39

38:                                               ; preds = %35
  call void @ERR_new()
  call void @ERR_set_debug(ptr noundef @.str, i32 noundef 73, ptr noundef @__func__.engine_list_add)
  call void (i32, i32, ptr, ...) @ERR_set_error(i32 noundef 38, i32 noundef 103, ptr noundef null)
  store i32 0, ptr %2, align 4
  store i32 1, ptr %7, align 4
  br label %89

39:                                               ; preds = %35
  %40 = load ptr, ptr %3, align 8, !tbaa !3
  %41 = getelementptr inbounds nuw %struct.engine_st, ptr %40, i32 0, i32 20
  %42 = call i32 @CRYPTO_UP_REF(ptr noundef %41, ptr noundef %6)
  %43 = icmp ne i32 %42, 0
  br i1 %43, label %45, label %44

44:                                               ; preds = %39
  call void @ERR_new()
  call void @ERR_set_debug(ptr noundef @.str, i32 noundef 81, ptr noundef @__func__.engine_list_add)
  call void (i32, i32, ptr, ...) @ERR_set_error(i32 noundef 38, i32 noundef 110, ptr noundef null)
  store i32 0, ptr %2, align 4
  store i32 1, ptr %7, align 4
  br label %89

45:                                               ; preds = %39
  %46 = load ptr, ptr @engine_list_head, align 8, !tbaa !3
  %47 = icmp eq ptr %46, null
  br i1 %47, label %48, label %66

48:                                               ; preds = %45
  %49 = load ptr, ptr @engine_list_tail, align 8, !tbaa !3
  %50 = icmp ne ptr %49, null
  br i1 %50, label %51, label %55

51:                                               ; preds = %48
  %52 = load ptr, ptr %3, align 8, !tbaa !3
  %53 = getelementptr inbounds nuw %struct.engine_st, ptr %52, i32 0, i32 20
  %54 = call i32 @CRYPTO_DOWN_REF(ptr noundef %53, ptr noundef %6)
  call void @ERR_new()
  call void @ERR_set_debug(ptr noundef @.str, i32 noundef 89, ptr noundef @__func__.engine_list_add)
  call void (i32, i32, ptr, ...) @ERR_set_error(i32 noundef 38, i32 noundef 110, ptr noundef null)
  store i32 0, ptr %2, align 4
  store i32 1, ptr %7, align 4
  br label %89

55:                                               ; preds = %48
  %56 = call i32 @engine_cleanup_add_last(ptr noundef @engine_list_cleanup)
  %57 = icmp ne i32 %56, 0
  br i1 %57, label %62, label %58

58:                                               ; preds = %55
  %59 = load ptr, ptr %3, align 8, !tbaa !3
  %60 = getelementptr inbounds nuw %struct.engine_st, ptr %59, i32 0, i32 20
  %61 = call i32 @CRYPTO_DOWN_REF(ptr noundef %60, ptr noundef %6)
  call void @ERR_new()
  call void @ERR_set_debug(ptr noundef @.str, i32 noundef 97, ptr noundef @__func__.engine_list_add)
  call void (i32, i32, ptr, ...) @ERR_set_error(i32 noundef 38, i32 noundef 110, ptr noundef null)
  store i32 0, ptr %2, align 4
  store i32 1, ptr %7, align 4
  br label %89

62:                                               ; preds = %55
  %63 = load ptr, ptr %3, align 8, !tbaa !3
  store ptr %63, ptr @engine_list_head, align 8, !tbaa !3
  %64 = load ptr, ptr %3, align 8, !tbaa !3
  %65 = getelementptr inbounds nuw %struct.engine_st, ptr %64, i32 0, i32 23
  store ptr null, ptr %65, align 8, !tbaa !31
  br label %85

66:                                               ; preds = %45
  %67 = load ptr, ptr @engine_list_tail, align 8, !tbaa !3
  %68 = icmp eq ptr %67, null
  br i1 %68, label %74, label %69

69:                                               ; preds = %66
  %70 = load ptr, ptr @engine_list_tail, align 8, !tbaa !3
  %71 = getelementptr inbounds nuw %struct.engine_st, ptr %70, i32 0, i32 24
  %72 = load ptr, ptr %71, align 8, !tbaa !24
  %73 = icmp ne ptr %72, null
  br i1 %73, label %74, label %78

74:                                               ; preds = %69, %66
  %75 = load ptr, ptr %3, align 8, !tbaa !3
  %76 = getelementptr inbounds nuw %struct.engine_st, ptr %75, i32 0, i32 20
  %77 = call i32 @CRYPTO_DOWN_REF(ptr noundef %76, ptr noundef %6)
  call void @ERR_new()
  call void @ERR_set_debug(ptr noundef @.str, i32 noundef 106, ptr noundef @__func__.engine_list_add)
  call void (i32, i32, ptr, ...) @ERR_set_error(i32 noundef 38, i32 noundef 110, ptr noundef null)
  store i32 0, ptr %2, align 4
  store i32 1, ptr %7, align 4
  br label %89

78:                                               ; preds = %69
  %79 = load ptr, ptr %3, align 8, !tbaa !3
  %80 = load ptr, ptr @engine_list_tail, align 8, !tbaa !3
  %81 = getelementptr inbounds nuw %struct.engine_st, ptr %80, i32 0, i32 24
  store ptr %79, ptr %81, align 8, !tbaa !24
  %82 = load ptr, ptr @engine_list_tail, align 8, !tbaa !3
  %83 = load ptr, ptr %3, align 8, !tbaa !3
  %84 = getelementptr inbounds nuw %struct.engine_st, ptr %83, i32 0, i32 23
  store ptr %82, ptr %84, align 8, !tbaa !31
  br label %85

85:                                               ; preds = %78, %62
  %86 = load ptr, ptr %3, align 8, !tbaa !3
  store ptr %86, ptr @engine_list_tail, align 8, !tbaa !3
  %87 = load ptr, ptr %3, align 8, !tbaa !3
  %88 = getelementptr inbounds nuw %struct.engine_st, ptr %87, i32 0, i32 24
  store ptr null, ptr %88, align 8, !tbaa !24
  store i32 1, ptr %2, align 4
  store i32 1, ptr %7, align 4
  br label %89

89:                                               ; preds = %85, %74, %58, %51, %44, %38, %10
  call void @llvm.lifetime.end.p0(i64 4, ptr %6) #5
  call void @llvm.lifetime.end.p0(i64 8, ptr %5) #5
  call void @llvm.lifetime.end.p0(i64 4, ptr %4) #5
  %90 = load i32, ptr %2, align 4
  ret i32 %90
}

; Function Attrs: nounwind uwtable
define i32 @ENGINE_add(ptr noundef %0) #0 {
  %2 = alloca i32, align 4
  %3 = alloca ptr, align 8
  %4 = alloca i32, align 4
  %5 = alloca i32, align 4
  store ptr %0, ptr %3, align 8, !tbaa !3
  call void @llvm.lifetime.start.p0(i64 4, ptr %4) #5
  store i32 1, ptr %4, align 4, !tbaa !9
  %6 = load ptr, ptr %3, align 8, !tbaa !3
  %7 = icmp eq ptr %6, null
  br i1 %7, label %8, label %9

8:                                                ; preds = %1
  call void @ERR_new()
  call void @ERR_set_debug(ptr noundef @.str, i32 noundef 343, ptr noundef @__func__.ENGINE_add)
  call void (i32, i32, ptr, ...) @ERR_set_error(i32 noundef 38, i32 noundef 786690, ptr noundef null)
  store i32 0, ptr %2, align 4
  store i32 1, ptr %5, align 4
  br label %34

9:                                                ; preds = %1
  %10 = load ptr, ptr %3, align 8, !tbaa !3
  %11 = getelementptr inbounds nuw %struct.engine_st, ptr %10, i32 0, i32 0
  %12 = load ptr, ptr %11, align 8, !tbaa !32
  %13 = icmp eq ptr %12, null
  br i1 %13, label %19, label %14

14:                                               ; preds = %9
  %15 = load ptr, ptr %3, align 8, !tbaa !3
  %16 = getelementptr inbounds nuw %struct.engine_st, ptr %15, i32 0, i32 1
  %17 = load ptr, ptr %16, align 8, !tbaa !33
  %18 = icmp eq ptr %17, null
  br i1 %18, label %19, label %20

19:                                               ; preds = %14, %9
  call void @ERR_new()
  call void @ERR_set_debug(ptr noundef @.str, i32 noundef 347, ptr noundef @__func__.ENGINE_add)
  call void (i32, i32, ptr, ...) @ERR_set_error(i32 noundef 38, i32 noundef 108, ptr noundef null)
  store i32 0, ptr %2, align 4
  store i32 1, ptr %5, align 4
  br label %34

20:                                               ; preds = %14
  %21 = load ptr, ptr @global_engine_lock, align 8, !tbaa !8
  %22 = call i32 @CRYPTO_THREAD_write_lock(ptr noundef %21)
  %23 = icmp ne i32 %22, 0
  br i1 %23, label %25, label %24

24:                                               ; preds = %20
  store i32 0, ptr %2, align 4
  store i32 1, ptr %5, align 4
  br label %34

25:                                               ; preds = %20
  %26 = load ptr, ptr %3, align 8, !tbaa !3
  %27 = call i32 @engine_list_add(ptr noundef %26)
  %28 = icmp ne i32 %27, 0
  br i1 %28, label %30, label %29

29:                                               ; preds = %25
  call void @ERR_new()
  call void @ERR_set_debug(ptr noundef @.str, i32 noundef 353, ptr noundef @__func__.ENGINE_add)
  call void (i32, i32, ptr, ...) @ERR_set_error(i32 noundef 38, i32 noundef 110, ptr noundef null)
  store i32 0, ptr %4, align 4, !tbaa !9
  br label %30

30:                                               ; preds = %29, %25
  %31 = load ptr, ptr @global_engine_lock, align 8, !tbaa !8
  %32 = call i32 @CRYPTO_THREAD_unlock(ptr noundef %31)
  %33 = load i32, ptr %4, align 4, !tbaa !9
  store i32 %33, ptr %2, align 4
  store i32 1, ptr %5, align 4
  br label %34

34:                                               ; preds = %30, %24, %19, %8
  call void @llvm.lifetime.end.p0(i64 4, ptr %4) #5
  %35 = load i32, ptr %2, align 4
  ret i32 %35
}